target datalayout = "e-m:e-p270:32:32-p271:32:32-p272:64:64-i64:64-i128:128-f80:128-n8:16:32:64-S128"
target triple = "x86_64-pc-linux-gnu"

%struct.PLpgSQL_stmt_fetch = type { i32, i32, i32, ptr, i32, i32, i64, ptr, i8, i8 }
%struct.PLpgSQL_expr = type { ptr, i32, ptr, ptr, i32, i8, ptr, ptr, ptr, i32, i32, i8, i32, ptr, ptr, ptr, i32, ptr, i8, i32 }

@.str = private unnamed_addr constant [1 x i8] zeroinitializer, align 1
@.str.56 = private unnamed_addr constant [2 x i8] c"\0A\00", align 1
@dump_indent = internal global i32 0, align 4
@.str.69 = private unnamed_addr constant [5 x i8] c"'%s'\00", align 1
@.str.70 = private unnamed_addr constant [13 x i8] c" target %d%s\00", align 1
@.str.71 = private unnamed_addr constant [9 x i8] c" (local)\00", align 1
@.str.79 = private unnamed_addr constant [2 x i8] c" \00", align 1
@.str.153 = private unnamed_addr constant [13 x i8] c"    FORWARD \00", align 1
@.str.154 = private unnamed_addr constant [14 x i8] c"    BACKWARD \00", align 1
@.str.155 = private unnamed_addr constant [14 x i8] c"    ABSOLUTE \00", align 1
@.str.156 = private unnamed_addr constant [14 x i8] c"    RELATIVE \00", align 1
@.str.157 = private unnamed_addr constant [32 x i8] c"??? unknown cursor direction %d\00", align 1
@.str.158 = private unnamed_addr constant [5 x i8] c"%ld\0A\00", align 1

; Function Attrs: nounwind uwtable
define internal void @dump_expr(ptr noundef %0) #0 {
  %2 = alloca ptr, align 8
  store ptr %0, ptr %2, align 8
  %3 = load ptr, ptr %2, align 8
  %4 = getelementptr inbounds nuw %struct.PLpgSQL_expr, ptr %3, i32 0, i32 0
  %5 = load ptr, ptr %4, align 8
  %6 = call i32 (ptr, ...) @pg_printf(ptr noundef @.str.69, ptr noundef %5)
  %7 = load ptr, ptr %2, align 8
  %8 = getelementptr inbounds nuw %struct.PLpgSQL_expr, ptr %7, i32 0, i32 4
  %9 = load i32, ptr %8, align 8
  %10 = icmp sge i32 %9, 0
  br i1 %10, label %11, label %21

11:                                               ; preds = %1
  %12 = load ptr, ptr %2, align 8
  %13 = getelementptr inbounds nuw %struct.PLpgSQL_expr, ptr %12, i32 0, i32 4
  %14 = load i32, ptr %13, align 8
  %15 = load ptr, ptr %2, align 8
  %16 = getelementptr inbounds nuw %struct.PLpgSQL_expr, ptr %15, i32 0, i32 5
  %17 = load i8, ptr %16, align 4, !range !7, !noundef !8
  %18 = trunc i8 %17 to i1
  %19 = select i1 %18, ptr @.str.71, ptr @.str
  %20 = call i32 (ptr, ...) @pg_printf(ptr noundef @.str.70, i32 noundef %14, ptr noundef %19)
  br label %21

21:                                               ; preds = %11, %1
  ret void
}

; Function Attrs: nounwind uwtable
define internal void @dump_ind() #0 {
  %1 = alloca i32, align 4
  call void @llvm.lifetime.start.p0(i64 4, ptr %1) #8
  store i32 0, ptr %1, align 4
  br label %2

2:                                                ; preds = %8, %0
  %3 = load i32, ptr %1, align 4
  %4 = load i32, ptr @dump_indent, align 4
  %5 = icmp slt i32 %3, %4
  br i1 %5, label %6, label %11

6:                                                ; preds = %2
  %7 = call i32 (ptr, ...) @pg_printf(ptr noundef @.str.79)
  br label %8

8:                                                ; preds = %6
  %9 = load i32, ptr %1, align 4
  %10 = add i32 %9, 1
  store i32 %10, ptr %1, align 4
  br label %2, !llvm.loop !65

11:                                               ; preds = %2
  call void @llvm.lifetime.end.p0(i64 4, ptr %1) #8
  ret void
}

; Function Attrs: nounwind uwtable
define internal void @dump_cursor_direction(ptr noundef %0) #0 {
  %2 = alloca ptr, align 8
  store ptr %0, ptr %2, align 8
  %3 = load i32, ptr @dump_indent, align 4
  %4 = add i32 %3, 2
  store i32 %4, ptr @dump_indent, align 4
  call void @dump_ind()
  %5 = load ptr, ptr %2, align 8
  %6 = getelementptr inbounds nuw %struct.PLpgSQL_stmt_fetch, ptr %5, i32 0, i32 5
  %7 = load i32, ptr %6, align 4
  switch i32 %7, label %16 [
    i32 0, label %8
    i32 1, label %10
    i32 2, label %12
    i32 3, label %14
  ]

8:                                                ; preds = %1
  %9 = call i32 (ptr, ...) @pg_printf(ptr noundef @.str.153)
  br label %21

10:                                               ; preds = %1
  %11 = call i32 (ptr, ...) @pg_printf(ptr noundef @.str.154)
  br label %21

12:                                               ; preds = %1
  %13 = call i32 (ptr, ...) @pg_printf(ptr noundef @.str.155)
  br label %21

14:                                               ; preds = %1
  %15 = call i32 (ptr, ...) @pg_printf(ptr noundef @.str.156)
  br label %21

16:                                               ; preds = %1
  %17 = load ptr, ptr %2, align 8
  %18 = getelementptr inbounds nuw %struct.PLpgSQL_stmt_fetch, ptr %17, i32 0, i32 5
  %19 = load i32, ptr %18, align 4
  %20 = call i32 (ptr, ...) @pg_printf(ptr noundef @.str.157, i32 noundef %19)
  br label %21

21:                                               ; preds = %16, %14, %12, %10, %8
  %22 = load ptr, ptr %2, align 8
  %23 = getelementptr inbounds nuw %struct.PLpgSQL_stmt_fetch, ptr %22, i32 0, i32 7
  %24 = load ptr, ptr %23, align 8
  %25 = icmp ne ptr %24, null
  br i1 %25, label %26, label %31

26:                                               ; preds = %21
  %27 = load ptr, ptr %2, align 8
  %28 = getelementptr inbounds nuw %struct.PLpgSQL_stmt_fetch, ptr %27, i32 0, i32 7
  %29 = load ptr, ptr %28, align 8
  call void @dump_expr(ptr noundef %29)
  %30 = call i32 (ptr, ...) @pg_printf(ptr noundef @.str.56)
  br label %36

31:                                               ; preds = %21
  %32 = load ptr, ptr %2, align 8
  %33 = getelementptr inbounds nuw %struct.PLpgSQL_stmt_fetch, ptr %32, i32 0, i32 6
  %34 = load i64, ptr %33, align 8
  %35 = call i32 (ptr, ...) @pg_printf(ptr noundef @.str.158, i64 noundef %34)
  br label %36

36:                                               ; preds = %31, %26
  %37 = load i32, ptr @dump_indent, align 4
  %38 = sub i32 %37, 2
  store i32 %38, ptr @dump_indent, align 4
  ret void
}