; Function Attrs: nounwind uwtable
define internal fastcc void @dump_cursor_direction(ptr noundef readonly captures(none) %0) unnamed_addr #1 {
  %2 = load i32, ptr @dump_indent, align 4
  %3 = add i32 %2, 2
  store i32 %3, ptr @dump_indent, align 4
  %4 = icmp sgt i32 %3, 0
  br i1 %4, label %.lr.ph.i, label %dump_ind.exit

.lr.ph.i:                                         ; preds = %1, %.lr.ph.i
  %.02.i = phi i32 [ %6, %.lr.ph.i ], [ 0, %1 ]
  %5 = tail call i32 (ptr, ...) @pg_printf(ptr noundef nonnull @.str.79) #16
  %6 = add nuw nsw i32 %.02.i, 1
  %7 = load i32, ptr @dump_indent, align 4
  %8 = icmp slt i32 %6, %7
  br i1 %8, label %.lr.ph.i, label %dump_ind.exit, !llvm.loop !16

dump_ind.exit:                                    ; preds = %.lr.ph.i, %1
  %9 = getelementptr inbounds nuw i8, ptr %0, i64 28
  %10 = load i32, ptr %9, align 4
  switch i32 %10, label %19 [
    i32 0, label %11
    i32 1, label %13
    i32 2, label %15
    i32 3, label %17
  ]

11:                                               ; preds = %dump_ind.exit
  %12 = tail call i32 (ptr, ...) @pg_printf(ptr noundef nonnull @.str.153) #16
  br label %21

13:                                               ; preds = %dump_ind.exit
  %14 = tail call i32 (ptr, ...) @pg_printf(ptr noundef nonnull @.str.154) #16
  br label %21

15:                                               ; preds = %dump_ind.exit
  %16 = tail call i32 (ptr, ...) @pg_printf(ptr noundef nonnull @.str.155) #16
  br label %21

17:                                               ; preds = %dump_ind.exit
  %18 = tail call i32 (ptr, ...) @pg_printf(ptr noundef nonnull @.str.156) #16
  br label %21

19:                                               ; preds = %dump_ind.exit
  %20 = tail call i32 (ptr, ...) @pg_printf(ptr noundef nonnull @.str.157, i32 noundef %10) #16
  br label %21

21:                                               ; preds = %19, %17, %15, %13, %11
  %22 = getelementptr inbounds nuw i8, ptr %0, i64 40
  %23 = load ptr, ptr %22, align 8
  %.not = icmp eq ptr %23, null
  br i1 %.not, label %37, label %24

24:                                               ; preds = %21
  %25 = load ptr, ptr %23, align 8
  %26 = tail call i32 (ptr, ...) @pg_printf(ptr noundef nonnull @.str.69, ptr noundef %25) #16
  %27 = getelementptr inbounds nuw i8, ptr %23, i64 32
  %28 = load i32, ptr %27, align 8
  %29 = icmp sgt i32 %28, -1
  br i1 %29, label %30, label %dump_expr.exit

30:                                               ; preds = %24
  %31 = getelementptr inbounds nuw i8, ptr %23, i64 36
  %32 = load i8, ptr %31, align 4, !range !9, !noundef !10
  %33 = trunc nuw i8 %32 to i1
  %34 = select i1 %33, ptr @.str.71, ptr @.str
  %35 = tail call i32 (ptr, ...) @pg_printf(ptr noundef nonnull @.str.70, i32 noundef %28, ptr noundef nonnull %34) #16
  br label %dump_expr.exit

dump_expr.exit:                                   ; preds = %24, %30
  %36 = tail call i32 (ptr, ...) @pg_printf(ptr noundef nonnull @.str.56) #16
  br label %41

37:                                               ; preds = %21
  %38 = getelementptr inbounds nuw i8, ptr %0, i64 32
  %39 = load i64, ptr %38, align 8
  %40 = tail call i32 (ptr, ...) @pg_printf(ptr noundef nonnull @.str.158, i64 noundef %39) #16
  br label %41

41:                                               ; preds = %37, %dump_expr.exit
  %42 = load i32, ptr @dump_indent, align 4
  %43 = add i32 %42, -2
  store i32 %43, ptr @dump_indent, align 4
  ret void
}